target datalayout = "e-m:e-p270:32:32-p271:32:32-p272:64:64-i64:64-i128:128-f80:128-n8:16:32:64-S128"
target triple = "x86_64-pc-linux-gnu"

%struct.evthread_lock_callbacks = type { i32, i32, ptr, ptr, ptr, ptr }
%union.evwatch_cb = type { ptr }
%struct.evwatch = type { %struct.anon, ptr, i32, %union.evwatch_cb, ptr }
%struct.anon = type { ptr, ptr }
%struct.event_base = type { ptr, ptr, %struct.event_changelist, ptr, %struct.evsig_info, i32, i32, i32, i32, i32, i32, i32, i32, i32, i32, i32, i32, ptr, i32, %struct.evcallback_list, ptr, i32, i32, %struct.event_signal_map, %struct.event_signal_map, %struct.min_heap, %struct.timeval, %struct.evutil_monotonic_timer, %struct.timeval, i64, i64, ptr, ptr, i32, ptr, i32, %struct.timeval, i32, i32, i32, [2 x i32], %struct.event, ptr, %struct.evutil_weakrand_state, %struct.once_event_list, [2 x %struct.evwatch_list] }
%struct.event_changelist = type { ptr, i32, i32 }
%struct.evsig_info = type { %struct.event, [2 x i32], i32, i32, [65 x ptr], ptr, i32 }
%struct.evcallback_list = type { ptr, ptr }
%struct.event_signal_map = type { ptr, i32 }
%struct.min_heap = type { ptr, i64, i64 }
%struct.evutil_monotonic_timer = type { i32, %struct.timeval, %struct.timeval }
%struct.timeval = type { i64, i64 }
%struct.event = type { %struct.event_callback, %union.anon.1, i32, i16, i16, ptr, %union.anon.3, %struct.timeval }
%struct.event_callback = type { %struct.anon.0, i16, i8, i8, %union.anon, ptr }
%struct.anon.0 = type { ptr, ptr }
%union.anon = type { ptr }
%union.anon.1 = type { %struct.anon.2 }
%struct.anon.2 = type { ptr, ptr }
%union.anon.3 = type { %struct.anon.4 }
%struct.anon.4 = type { %struct.anon.5, %struct.timeval }
%struct.anon.5 = type { ptr, ptr }
%struct.evutil_weakrand_state = type { i32 }
%struct.once_event_list = type { ptr }
%struct.evwatch_list = type { ptr, ptr }
%struct.evwatch_prepare_cb_info = type { ptr }

@evthread_lock_fns_ = external global %struct.evthread_lock_callbacks, align 8

; Function Attrs: nounwind uwtable
define ptr @evwatch_prepare_new(ptr noundef %0, ptr noundef %1, ptr noundef %2) #0 {
  %4 = alloca ptr, align 8
  %5 = alloca ptr, align 8
  %6 = alloca ptr, align 8
  %7 = alloca %union.evwatch_cb, align 8
  store ptr %0, ptr %4, align 8
  store ptr %1, ptr %5, align 8
  store ptr %2, ptr %6, align 8
  call void @llvm.lifetime.start.p0(i64 8, ptr %7) #5
  %8 = load ptr, ptr %5, align 8
  store ptr %8, ptr %7, align 8
  %9 = load ptr, ptr %4, align 8
  %10 = load ptr, ptr %6, align 8
  %11 = getelementptr inbounds nuw %union.evwatch_cb, ptr %7, i32 0, i32 0
  %12 = load ptr, ptr %11, align 8
  %13 = call ptr @evwatch_new(ptr noundef %9, ptr %12, ptr noundef %10, i32 noundef 0)
  call void @llvm.lifetime.end.p0(i64 8, ptr %7) #5
  ret ptr %13
}

; Function Attrs: nocallback nofree nosync nounwind willreturn memory(argmem: readwrite)
declare void @llvm.lifetime.start.p0(i64 immarg, ptr captures(none)) #1

; Function Attrs: inlinehint nounwind uwtable
define internal ptr @evwatch_new(ptr noundef %0, ptr %1, ptr noundef %2, i32 noundef %3) #2 {
  %5 = alloca ptr, align 8
  %6 = alloca %union.evwatch_cb, align 8
  %7 = alloca ptr, align 8
  %8 = alloca ptr, align 8
  %9 = alloca i32, align 4
  %10 = alloca ptr, align 8
  %11 = alloca i32, align 4
  %12 = getelementptr inbounds nuw %union.evwatch_cb, ptr %6, i32 0, i32 0
  store ptr %1, ptr %12, align 8
  store ptr %0, ptr %7, align 8
  store ptr %2, ptr %8, align 8
  store i32 %3, ptr %9, align 4
  call void @llvm.lifetime.start.p0(i64 8, ptr %10) #5
  %13 = call ptr @event_mm_malloc_(i64 noundef 48)
  store ptr %13, ptr %10, align 8
  %14 = load ptr, ptr %10, align 8
  %15 = icmp ne ptr %14, null
  br i1 %15, label %17, label %16

16:                                               ; preds = %4
  store ptr null, ptr %5, align 8
  store i32 1, ptr %11, align 4
  br label %97

17:                                               ; preds = %4
  %18 = load ptr, ptr %7, align 8
  %19 = load ptr, ptr %10, align 8
  %20 = getelementptr inbounds nuw %struct.evwatch, ptr %19, i32 0, i32 1
  store ptr %18, ptr %20, align 8
  %21 = load i32, ptr %9, align 4
  %22 = load ptr, ptr %10, align 8
  %23 = getelementptr inbounds nuw %struct.evwatch, ptr %22, i32 0, i32 2
  store i32 %21, ptr %23, align 8
  %24 = load ptr, ptr %10, align 8
  %25 = getelementptr inbounds nuw %struct.evwatch, ptr %24, i32 0, i32 3
  call void @llvm.memcpy.p0.p0.i64(ptr align 8 %25, ptr align 8 %6, i64 8, i1 false)
  %26 = load ptr, ptr %8, align 8
  %27 = load ptr, ptr %10, align 8
  %28 = getelementptr inbounds nuw %struct.evwatch, ptr %27, i32 0, i32 4
  store ptr %26, ptr %28, align 8
  br label %29

29:                                               ; preds = %17
  br label %30

30:                                               ; preds = %29
  %31 = load ptr, ptr %7, align 8
  %32 = getelementptr inbounds nuw %struct.event_base, ptr %31, i32 0, i32 31
  %33 = load ptr, ptr %32, align 8
  %34 = icmp ne ptr %33, null
  br i1 %34, label %35, label %41

35:                                               ; preds = %30
  %36 = load ptr, ptr getelementptr inbounds nuw (%struct.evthread_lock_callbacks, ptr @evthread_lock_fns_, i32 0, i32 4), align 8
  %37 = load ptr, ptr %7, align 8
  %38 = getelementptr inbounds nuw %struct.event_base, ptr %37, i32 0, i32 31
  %39 = load ptr, ptr %38, align 8
  %40 = call i32 %36(i32 noundef 0, ptr noundef %39)
  br label %41

41:                                               ; preds = %35, %30
  br label %42

42:                                               ; preds = %41
  br label %43

43:                                               ; preds = %42
  br label %44

44:                                               ; preds = %43
  br label %45

45:                                               ; preds = %44
  br label %46

46:                                               ; preds = %45
  %47 = load ptr, ptr %10, align 8
  %48 = getelementptr inbounds nuw %struct.evwatch, ptr %47, i32 0, i32 0
  %49 = getelementptr inbounds nuw %struct.anon, ptr %48, i32 0, i32 0
  store ptr null, ptr %49, align 8
  %50 = load ptr, ptr %7, align 8
  %51 = getelementptr inbounds nuw %struct.event_base, ptr %50, i32 0, i32 45
  %52 = load i32, ptr %9, align 4
  %53 = zext i32 %52 to i64
  %54 = getelementptr inbounds nuw [2 x %struct.evwatch_list], ptr %51, i64 0, i64 %53
  %55 = getelementptr inbounds nuw %struct.evwatch_list, ptr %54, i32 0, i32 1
  %56 = load ptr, ptr %55, align 8
  %57 = load ptr, ptr %10, align 8
  %58 = getelementptr inbounds nuw %struct.evwatch, ptr %57, i32 0, i32 0
  %59 = getelementptr inbounds nuw %struct.anon, ptr %58, i32 0, i32 1
  store ptr %56, ptr %59, align 8
  %60 = load ptr, ptr %10, align 8
  %61 = load ptr, ptr %7, align 8
  %62 = getelementptr inbounds nuw %struct.event_base, ptr %61, i32 0, i32 45
  %63 = load i32, ptr %9, align 4
  %64 = zext i32 %63 to i64
  %65 = getelementptr inbounds nuw [2 x %struct.evwatch_list], ptr %62, i64 0, i64 %64
  %66 = getelementptr inbounds nuw %struct.evwatch_list, ptr %65, i32 0, i32 1
  %67 = load ptr, ptr %66, align 8
  store ptr %60, ptr %67, align 8
  %68 = load ptr, ptr %10, align 8
  %69 = getelementptr inbounds nuw %struct.evwatch, ptr %68, i32 0, i32 0
  %70 = getelementptr inbounds nuw %struct.anon, ptr %69, i32 0, i32 0
  %71 = load ptr, ptr %7, align 8
  %72 = getelementptr inbounds nuw %struct.event_base, ptr %71, i32 0, i32 45
  %73 = load i32, ptr %9, align 4
  %74 = zext i32 %73 to i64
  %75 = getelementptr inbounds nuw [2 x %struct.evwatch_list], ptr %72, i64 0, i64 %74
  %76 = getelementptr inbounds nuw %struct.evwatch_list, ptr %75, i32 0, i32 1
  store ptr %70, ptr %76, align 8
  br label %77

77:                                               ; preds = %46
  br label %78

78:                                               ; preds = %77
  br label %79

79:                                               ; preds = %78
  br label %80

80:                                               ; preds = %79
  %81 = load ptr, ptr %7, align 8
  %82 = getelementptr inbounds nuw %struct.event_base, ptr %81, i32 0, i32 31
  %83 = load ptr, ptr %82, align 8
  %84 = icmp ne ptr %83, null
  br i1 %84, label %85, label %91

85:                                               ; preds = %80
  %86 = load ptr, ptr getelementptr inbounds nuw (%struct.evthread_lock_callbacks, ptr @evthread_lock_fns_, i32 0, i32 5), align 8
  %87 = load ptr, ptr %7, align 8
  %88 = getelementptr inbounds nuw %struct.event_base, ptr %87, i32 0, i32 31
  %89 = load ptr, ptr %88, align 8
  %90 = call i32 %86(i32 noundef 0, ptr noundef %89)
  br label %91

91:                                               ; preds = %85, %80
  br label %92

92:                                               ; preds = %91
  br label %93

93:                                               ; preds = %92
  br label %94

94:                                               ; preds = %93
  br label %95

95:                                               ; preds = %94
  %96 = load ptr, ptr %10, align 8
  store ptr %96, ptr %5, align 8
  store i32 1, ptr %11, align 4
  br label %97

97:                                               ; preds = %95, %16
  call void @llvm.lifetime.end.p0(i64 8, ptr %10) #5
  %98 = load ptr, ptr %5, align 8
  ret ptr %98
}

; Function Attrs: nocallback nofree nosync nounwind willreturn memory(argmem: readwrite)
declare void @llvm.lifetime.end.p0(i64 immarg, ptr captures(none)) #1

; Function Attrs: nounwind uwtable
define ptr @evwatch_check_new(ptr noundef %0, ptr noundef %1, ptr noundef %2) #0 {
  %4 = alloca ptr, align 8
  %5 = alloca ptr, align 8
  %6 = alloca ptr, align 8
  %7 = alloca %union.evwatch_cb, align 8
  store ptr %0, ptr %4, align 8
  store ptr %1, ptr %5, align 8
  store ptr %2, ptr %6, align 8
  call void @llvm.lifetime.start.p0(i64 8, ptr %7) #5
  %8 = load ptr, ptr %5, align 8
  store ptr %8, ptr %7, align 8
  %9 = load ptr, ptr %4, align 8
  %10 = load ptr, ptr %6, align 8
  %11 = getelementptr inbounds nuw %union.evwatch_cb, ptr %7, i32 0, i32 0
  %12 = load ptr, ptr %11, align 8
  %13 = call ptr @evwatch_new(ptr noundef %9, ptr %12, ptr noundef %10, i32 noundef 1)
  call void @llvm.lifetime.end.p0(i64 8, ptr %7) #5
  ret ptr %13
}

; Function Attrs: nounwind uwtable
define ptr @evwatch_base(ptr noundef %0) #0 {
  %2 = alloca ptr, align 8
  store ptr %0, ptr %2, align 8
  %3 = load ptr, ptr %2, align 8
  %4 = getelementptr inbounds nuw %struct.evwatch, ptr %3, i32 0, i32 1
  %5 = load ptr, ptr %4, align 8
  ret ptr %5
}

; Function Attrs: nounwind uwtable
define void @evwatch_free(ptr noundef %0) #0 {
  %2 = alloca ptr, align 8
  store ptr %0, ptr %2, align 8
  br label %3

3:                                                ; preds = %1
  br label %4

4:                                                ; preds = %3
  %5 = load ptr, ptr %2, align 8
  %6 = getelementptr inbounds nuw %struct.evwatch, ptr %5, i32 0, i32 1
  %7 = load ptr, ptr %6, align 8
  %8 = getelementptr inbounds nuw %struct.event_base, ptr %7, i32 0, i32 31
  %9 = load ptr, ptr %8, align 8
  %10 = icmp ne ptr %9, null
  br i1 %10, label %11, label %19

11:                                               ; preds = %4
  %12 = load ptr, ptr getelementptr inbounds nuw (%struct.evthread_lock_callbacks, ptr @evthread_lock_fns_, i32 0, i32 4), align 8
  %13 = load ptr, ptr %2, align 8
  %14 = getelementptr inbounds nuw %struct.evwatch, ptr %13, i32 0, i32 1
  %15 = load ptr, ptr %14, align 8
  %16 = getelementptr inbounds nuw %struct.event_base, ptr %15, i32 0, i32 31
  %17 = load ptr, ptr %16, align 8
  %18 = call i32 %12(i32 noundef 0, ptr noundef %17)
  br label %19

19:                                               ; preds = %11, %4
  br label %20

20:                                               ; preds = %19
  br label %21

21:                                               ; preds = %20
  br label %22

22:                                               ; preds = %21
  %23 = load ptr, ptr %2, align 8
  %24 = getelementptr inbounds nuw %struct.evwatch, ptr %23, i32 0, i32 0
  %25 = getelementptr inbounds nuw %struct.anon, ptr %24, i32 0, i32 0
  %26 = load ptr, ptr %25, align 8
  %27 = icmp ne ptr %26, null
  br i1 %27, label %28, label %39

28:                                               ; preds = %22
  %29 = load ptr, ptr %2, align 8
  %30 = getelementptr inbounds nuw %struct.evwatch, ptr %29, i32 0, i32 0
  %31 = getelementptr inbounds nuw %struct.anon, ptr %30, i32 0, i32 1
  %32 = load ptr, ptr %31, align 8
  %33 = load ptr, ptr %2, align 8
  %34 = getelementptr inbounds nuw %struct.evwatch, ptr %33, i32 0, i32 0
  %35 = getelementptr inbounds nuw %struct.anon, ptr %34, i32 0, i32 0
  %36 = load ptr, ptr %35, align 8
  %37 = getelementptr inbounds nuw %struct.evwatch, ptr %36, i32 0, i32 0
  %38 = getelementptr inbounds nuw %struct.anon, ptr %37, i32 0, i32 1
  store ptr %32, ptr %38, align 8
  br label %54

39:                                               ; preds = %22
  %40 = load ptr, ptr %2, align 8
  %41 = getelementptr inbounds nuw %struct.evwatch, ptr %40, i32 0, i32 0
  %42 = getelementptr inbounds nuw %struct.anon, ptr %41, i32 0, i32 1
  %43 = load ptr, ptr %42, align 8
  %44 = load ptr, ptr %2, align 8
  %45 = getelementptr inbounds nuw %struct.evwatch, ptr %44, i32 0, i32 1
  %46 = load ptr, ptr %45, align 8
  %47 = getelementptr inbounds nuw %struct.event_base, ptr %46, i32 0, i32 45
  %48 = load ptr, ptr %2, align 8
  %49 = getelementptr inbounds nuw %struct.evwatch, ptr %48, i32 0, i32 2
  %50 = load i32, ptr %49, align 8
  %51 = zext i32 %50 to i64
  %52 = getelementptr inbounds nuw [2 x %struct.evwatch_list], ptr %47, i64 0, i64 %51
  %53 = getelementptr inbounds nuw %struct.evwatch_list, ptr %52, i32 0, i32 1
  store ptr %43, ptr %53, align 8
  br label %54

54:                                               ; preds = %39, %28
  %55 = load ptr, ptr %2, align 8
  %56 = getelementptr inbounds nuw %struct.evwatch, ptr %55, i32 0, i32 0
  %57 = getelementptr inbounds nuw %struct.anon, ptr %56, i32 0, i32 0
  %58 = load ptr, ptr %57, align 8
  %59 = load ptr, ptr %2, align 8
  %60 = getelementptr inbounds nuw %struct.evwatch, ptr %59, i32 0, i32 0
  %61 = getelementptr inbounds nuw %struct.anon, ptr %60, i32 0, i32 1
  %62 = load ptr, ptr %61, align 8
  store ptr %58, ptr %62, align 8
  br label %63

63:                                               ; preds = %54
  br label %64

64:                                               ; preds = %63
  br label %65

65:                                               ; preds = %64
  %66 = load ptr, ptr %2, align 8
  %67 = getelementptr inbounds nuw %struct.evwatch, ptr %66, i32 0, i32 1
  %68 = load ptr, ptr %67, align 8
  %69 = getelementptr inbounds nuw %struct.event_base, ptr %68, i32 0, i32 31
  %70 = load ptr, ptr %69, align 8
  %71 = icmp ne ptr %70, null
  br i1 %71, label %72, label %80

72:                                               ; preds = %65
  %73 = load ptr, ptr getelementptr inbounds nuw (%struct.evthread_lock_callbacks, ptr @evthread_lock_fns_, i32 0, i32 5), align 8
  %74 = load ptr, ptr %2, align 8
  %75 = getelementptr inbounds nuw %struct.evwatch, ptr %74, i32 0, i32 1
  %76 = load ptr, ptr %75, align 8
  %77 = getelementptr inbounds nuw %struct.event_base, ptr %76, i32 0, i32 31
  %78 = load ptr, ptr %77, align 8
  %79 = call i32 %73(i32 noundef 0, ptr noundef %78)
  br label %80

80:                                               ; preds = %72, %65
  br label %81

81:                                               ; preds = %80
  br label %82

82:                                               ; preds = %81
  %83 = load ptr, ptr %2, align 8
  call void @event_mm_free_(ptr noundef %83)
  ret void
}

declare void @event_mm_free_(ptr noundef) #3

; Function Attrs: nounwind uwtable
define i32 @evwatch_prepare_get_timeout(ptr noundef %0, ptr noundef %1) #0 {
  %3 = alloca i32, align 4
  %4 = alloca ptr, align 8
  %5 = alloca ptr, align 8
  store ptr %0, ptr %4, align 8
  store ptr %1, ptr %5, align 8
  %6 = load ptr, ptr %4, align 8
  %7 = getelementptr inbounds nuw %struct.evwatch_prepare_cb_info, ptr %6, i32 0, i32 0
  %8 = load ptr, ptr %7, align 8
  %9 = icmp ne ptr %8, null
  br i1 %9, label %10, label %15

10:                                               ; preds = %2
  %11 = load ptr, ptr %5, align 8
  %12 = load ptr, ptr %4, align 8
  %13 = getelementptr inbounds nuw %struct.evwatch_prepare_cb_info, ptr %12, i32 0, i32 0
  %14 = load ptr, ptr %13, align 8
  call void @llvm.memcpy.p0.p0.i64(ptr align 8 %11, ptr align 8 %14, i64 16, i1 false)
  store i32 1, ptr %3, align 4
  br label %16

15:                                               ; preds = %2
  store i32 0, ptr %3, align 4
  br label %16

16:                                               ; preds = %15, %10
  %17 = load i32, ptr %3, align 4
  ret i32 %17
}

; Function Attrs: nocallback nofree nounwind willreturn memory(argmem: readwrite)
declare void @llvm.memcpy.p0.p0.i64(ptr noalias writeonly captures(none), ptr noalias readonly captures(none), i64, i1 immarg) #4

declare ptr @event_mm_malloc_(i64 noundef) #3


!llvm.module.flags = !{!0, !1, !2}

!0 = !{i32 1, !"wchar_size", i32 4}
!1 = !{i32 8, !"PIC Level", i32 2}
!2 = !{i32 7, !"uwtable", i32 2}
