; ModuleID = 'bench/libevent/original/watch.ll'
source_filename = "bench/libevent/original/watch.ll"
target datalayout = "e-m:e-p270:32:32-p271:32:32-p272:64:64-i64:64-i128:128-f80:128-n8:16:32:64-S128"
target triple = "x86_64-pc-linux-gnu"

%struct.evthread_lock_callbacks = type { i32, i32, ptr, ptr, ptr, ptr }

@evthread_lock_fns_ = external local_unnamed_addr global %struct.evthread_lock_callbacks, align 8

; Function Attrs: nounwind uwtable
define ptr @evwatch_prepare_new(ptr noundef %0, ptr noundef %1, ptr noundef %2) local_unnamed_addr #0 {
  %4 = tail call ptr @event_mm_malloc_(i64 noundef 48) #5
  %.not.i = icmp eq ptr %4, null
  br i1 %.not.i, label %evwatch_new.exit, label %5

5:                                                ; preds = %3
  %6 = getelementptr inbounds nuw i8, ptr %4, i64 16
  store ptr %0, ptr %6, align 8
  %7 = getelementptr inbounds nuw i8, ptr %4, i64 24
  store i32 0, ptr %7, align 8
  %8 = getelementptr inbounds nuw i8, ptr %4, i64 32
  store ptr %1, ptr %8, align 8
  %9 = getelementptr inbounds nuw i8, ptr %4, i64 40
  store ptr %2, ptr %9, align 8
  %10 = getelementptr inbounds nuw i8, ptr %0, i64 952
  %11 = load ptr, ptr %10, align 8
  %.not26.i = icmp eq ptr %11, null
  br i1 %.not26.i, label %15, label %12

12:                                               ; preds = %5
  %13 = load ptr, ptr getelementptr inbounds nuw (i8, ptr @evthread_lock_fns_, i64 24), align 8
  %14 = tail call i32 %13(i32 noundef 0, ptr noundef nonnull %11) #5
  br label %15

15:                                               ; preds = %12, %5
  store ptr null, ptr %4, align 8
  %16 = getelementptr inbounds nuw i8, ptr %0, i64 1184
  %17 = load ptr, ptr %16, align 8
  %18 = getelementptr inbounds nuw i8, ptr %4, i64 8
  store ptr %17, ptr %18, align 8
  store ptr %4, ptr %17, align 8
  store ptr %4, ptr %16, align 8
  %19 = load ptr, ptr %10, align 8
  %.not27.i = icmp eq ptr %19, null
  br i1 %.not27.i, label %evwatch_new.exit, label %20

20:                                               ; preds = %15
  %21 = load ptr, ptr getelementptr inbounds nuw (i8, ptr @evthread_lock_fns_, i64 32), align 8
  %22 = tail call i32 %21(i32 noundef 0, ptr noundef nonnull %19) #5
  br label %evwatch_new.exit

evwatch_new.exit:                                 ; preds = %3, %15, %20
  ret ptr %4
}

; Function Attrs: nounwind uwtable
define ptr @evwatch_check_new(ptr noundef %0, ptr noundef %1, ptr noundef %2) local_unnamed_addr #0 {
  %4 = tail call ptr @event_mm_malloc_(i64 noundef 48) #5
  %.not.i = icmp eq ptr %4, null
  br i1 %.not.i, label %evwatch_new.exit, label %5

5:                                                ; preds = %3
  %6 = getelementptr inbounds nuw i8, ptr %4, i64 16
  store ptr %0, ptr %6, align 8
  %7 = getelementptr inbounds nuw i8, ptr %4, i64 24
  store i32 1, ptr %7, align 8
  %8 = getelementptr inbounds nuw i8, ptr %4, i64 32
  store ptr %1, ptr %8, align 8
  %9 = getelementptr inbounds nuw i8, ptr %4, i64 40
  store ptr %2, ptr %9, align 8
  %10 = getelementptr inbounds nuw i8, ptr %0, i64 952
  %11 = load ptr, ptr %10, align 8
  %.not26.i = icmp eq ptr %11, null
  br i1 %.not26.i, label %15, label %12

12:                                               ; preds = %5
  %13 = load ptr, ptr getelementptr inbounds nuw (i8, ptr @evthread_lock_fns_, i64 24), align 8
  %14 = tail call i32 %13(i32 noundef 0, ptr noundef nonnull %11) #5
  br label %15

15:                                               ; preds = %12, %5
  store ptr null, ptr %4, align 8
  %16 = getelementptr inbounds nuw i8, ptr %0, i64 1200
  %17 = load ptr, ptr %16, align 8
  %18 = getelementptr inbounds nuw i8, ptr %4, i64 8
  store ptr %17, ptr %18, align 8
  store ptr %4, ptr %17, align 8
  store ptr %4, ptr %16, align 8
  %19 = load ptr, ptr %10, align 8
  %.not27.i = icmp eq ptr %19, null
  br i1 %.not27.i, label %evwatch_new.exit, label %20

20:                                               ; preds = %15
  %21 = load ptr, ptr getelementptr inbounds nuw (i8, ptr @evthread_lock_fns_, i64 32), align 8
  %22 = tail call i32 %21(i32 noundef 0, ptr noundef nonnull %19) #5
  br label %evwatch_new.exit

evwatch_new.exit:                                 ; preds = %3, %15, %20
  ret ptr %4
}

; Function Attrs: mustprogress nofree norecurse nosync nounwind willreturn memory(argmem: read) uwtable
define ptr @evwatch_base(ptr noundef readonly captures(none) %0) local_unnamed_addr #1 {
  %2 = getelementptr inbounds nuw i8, ptr %0, i64 16
  %3 = load ptr, ptr %2, align 8
  ret ptr %3
}

; Function Attrs: nounwind uwtable
define void @evwatch_free(ptr noundef %0) local_unnamed_addr #0 {
  %2 = getelementptr inbounds nuw i8, ptr %0, i64 16
  %3 = load ptr, ptr %2, align 8
  %4 = getelementptr inbounds nuw i8, ptr %3, i64 952
  %5 = load ptr, ptr %4, align 8
  %.not = icmp eq ptr %5, null
  br i1 %.not, label %9, label %6

6:                                                ; preds = %1
  %7 = load ptr, ptr getelementptr inbounds nuw (i8, ptr @evthread_lock_fns_, i64 24), align 8
  %8 = tail call i32 %7(i32 noundef 0, ptr noundef nonnull %5) #5
  br label %9

9:                                                ; preds = %1, %6
  %10 = load ptr, ptr %0, align 8
  %.not15 = icmp eq ptr %10, null
  %11 = getelementptr inbounds nuw i8, ptr %0, i64 8
  %12 = load ptr, ptr %11, align 8
  br i1 %.not15, label %15, label %13

13:                                               ; preds = %9
  %14 = getelementptr inbounds nuw i8, ptr %10, i64 8
  store ptr %12, ptr %14, align 8
  br label %22

15:                                               ; preds = %9
  %16 = load ptr, ptr %2, align 8
  %17 = getelementptr inbounds nuw i8, ptr %0, i64 24
  %18 = load i32, ptr %17, align 8
  %19 = zext i32 %18 to i64
  %.idx = shl nuw nsw i64 %19, 4
  %20 = getelementptr i8, ptr %16, i64 1184
  %21 = getelementptr i8, ptr %20, i64 %.idx
  store ptr %12, ptr %21, align 8
  br label %22

22:                                               ; preds = %15, %13
  %23 = load ptr, ptr %0, align 8
  store ptr %23, ptr %12, align 8
  %24 = load ptr, ptr %2, align 8
  %25 = getelementptr inbounds nuw i8, ptr %24, i64 952
  %26 = load ptr, ptr %25, align 8
  %.not16 = icmp eq ptr %26, null
  br i1 %.not16, label %30, label %27

27:                                               ; preds = %22
  %28 = load ptr, ptr getelementptr inbounds nuw (i8, ptr @evthread_lock_fns_, i64 32), align 8
  %29 = tail call i32 %28(i32 noundef 0, ptr noundef nonnull %26) #5
  br label %30

30:                                               ; preds = %27, %22
  tail call void @event_mm_free_(ptr noundef nonnull %0) #5
  ret void
}

declare void @event_mm_free_(ptr noundef) local_unnamed_addr #2

; Function Attrs: mustprogress nofree norecurse nosync nounwind willreturn memory(readwrite, inaccessiblemem: none) uwtable
define range(i32 0, 2) i32 @evwatch_prepare_get_timeout(ptr noundef readonly captures(none) %0, ptr noundef writeonly captures(none) %1) local_unnamed_addr #3 {
  %3 = load ptr, ptr %0, align 8
  %.not = icmp eq ptr %3, null
  br i1 %.not, label %5, label %4

4:                                                ; preds = %2
  tail call void @llvm.memcpy.p0.p0.i64(ptr noundef nonnull align 8 dereferenceable(16) %1, ptr noundef nonnull align 8 dereferenceable(16) %3, i64 16, i1 false)
  br label %5

5:                                                ; preds = %2, %4
  %.0 = phi i32 [ 1, %4 ], [ 0, %2 ]
  ret i32 %.0
}

; Function Attrs: mustprogress nocallback nofree nounwind willreturn memory(argmem: readwrite)
declare void @llvm.memcpy.p0.p0.i64(ptr noalias writeonly captures(none), ptr noalias readonly captures(none), i64, i1 immarg) #4

declare ptr @event_mm_malloc_(i64 noundef) local_unnamed_addr #2


!llvm.module.flags = !{!0, !1, !2}

!0 = !{i32 1, !"wchar_size", i32 4}
!1 = !{i32 8, !"PIC Level", i32 2}
!2 = !{i32 7, !"uwtable", i32 2}
